; ModuleID = '44/1033.c'
source_filename = "44/1033.c"
target datalayout = "e-m:e-p270:32:32-p271:32:32-p272:64:64-i64:64-f80:128-n8:16:32:64-S128"
target triple = "x86_64-pc-linux-gnu"

@.str = private unnamed_addr constant [3 x i8] c"%d\00", align 1
@.str.1 = private unnamed_addr constant [4 x i8] c"%d\0A\00", align 1

; Function Attrs: noinline nounwind uwtable
define dso_local void @main() #0 {
  %1 = alloca [6 x i32], align 16
  %2 = alloca i32, align 4
  store i32 0, i32* %2, align 4
  br label %3

3:                                                ; preds = %11, %0
  %4 = load i32, i32* %2, align 4
  %5 = icmp slt i32 %4, 6
  br i1 %5, label %6, label %14

6:                                                ; preds = %3
  %7 = load i32, i32* %2, align 4
  %8 = sext i32 %7 to i64
  %9 = getelementptr inbounds [6 x i32], [6 x i32]* %1, i64 0, i64 %8
  %10 = call i32 (i8*, ...) @__isoc99_scanf(i8* getelementptr inbounds ([3 x i8], [3 x i8]* @.str, i64 0, i64 0), i32* %9)
  br label %11

11:                                               ; preds = %6
  %12 = load i32, i32* %2, align 4
  %13 = add nsw i32 %12, 1
  store i32 %13, i32* %2, align 4
  br label %3

14:                                               ; preds = %3
  store i32 0, i32* %2, align 4
  br label %15

15:                                               ; preds = %32, %14
  %16 = load i32, i32* %2, align 4
  %17 = icmp slt i32 %16, 6
  br i1 %17, label %18, label %35

18:                                               ; preds = %15
  %19 = load i32, i32* %2, align 4
  %20 = sext i32 %19 to i64
  %21 = getelementptr inbounds [6 x i32], [6 x i32]* %1, i64 0, i64 %20
  %22 = load i32, i32* %21, align 4
  %23 = call i32 @reverse(i32 %22)
  %24 = load i32, i32* %2, align 4
  %25 = sext i32 %24 to i64
  %26 = getelementptr inbounds [6 x i32], [6 x i32]* %1, i64 0, i64 %25
  store i32 %23, i32* %26, align 4
  %27 = load i32, i32* %2, align 4
  %28 = sext i32 %27 to i64
  %29 = getelementptr inbounds [6 x i32], [6 x i32]* %1, i64 0, i64 %28
  %30 = load i32, i32* %29, align 4
  %31 = call i32 (i8*, ...) @printf(i8* getelementptr inbounds ([4 x i8], [4 x i8]* @.str.1, i64 0, i64 0), i32 %30)
  br label %32

32:                                               ; preds = %18
  %33 = load i32, i32* %2, align 4
  %34 = add nsw i32 %33, 1
  store i32 %34, i32* %2, align 4
  br label %15

35:                                               ; preds = %15
  ret void
}

declare dso_local i32 @__isoc99_scanf(i8*, ...) #1

; Function Attrs: noinline nounwind uwtable
define dso_local i32 @reverse(i32 %0) #0 {
  %2 = alloca i32, align 4
  %3 = alloca i32, align 4
  %4 = alloca i32, align 4
  %5 = alloca i32, align 4
  %6 = alloca i32, align 4
  %7 = alloca i32, align 4
  %8 = alloca i32, align 4
  %9 = alloca i32, align 4
  store i32 %0, i32* %3, align 4
  store i32 0, i32* %6, align 4
  %10 = load i32, i32* %3, align 4
  %11 = icmp slt i32 %10, 0
  br i1 %11, label %12, label %17

12:                                               ; preds = %1
  %13 = load i32, i32* %3, align 4
  %14 = sub nsw i32 0, %13
  %15 = call i32 @reverse(i32 %14)
  %16 = mul nsw i32 -1, %15
  store i32 %16, i32* %2, align 4
  br label %67

17:                                               ; preds = %1
  %18 = load i32, i32* %3, align 4
  %19 = sitofp i32 %18 to double
  %20 = call double @log10(double %19) #3
  %21 = fptosi double %20 to i32
  store i32 %21, i32* %4, align 4
  store i32 0, i32* %5, align 4
  br label %22

22:                                               ; preds = %62, %17
  %23 = load i32, i32* %5, align 4
  %24 = load i32, i32* %4, align 4
  %25 = add nsw i32 %24, 1
  %26 = icmp slt i32 %23, %25
  br i1 %26, label %27, label %65

27:                                               ; preds = %22
  store i32 1, i32* %8, align 4
  store i32 1, i32* %9, align 4
  store i32 0, i32* %7, align 4
  br label %28

28:                                               ; preds = %35, %27
  %29 = load i32, i32* %7, align 4
  %30 = load i32, i32* %5, align 4
  %31 = icmp slt i32 %29, %30
  br i1 %31, label %32, label %38

32:                                               ; preds = %28
  %33 = load i32, i32* %8, align 4
  %34 = mul nsw i32 %33, 10
  store i32 %34, i32* %8, align 4
  br label %35

35:                                               ; preds = %32
  %36 = load i32, i32* %7, align 4
  %37 = add nsw i32 %36, 1
  store i32 %37, i32* %7, align 4
  br label %28

38:                                               ; preds = %28
  store i32 0, i32* %7, align 4
  br label %39

39:                                               ; preds = %48, %38
  %40 = load i32, i32* %7, align 4
  %41 = load i32, i32* %4, align 4
  %42 = load i32, i32* %5, align 4
  %43 = sub nsw i32 %41, %42
  %44 = icmp slt i32 %40, %43
  br i1 %44, label %45, label %51

45:                                               ; preds = %39
  %46 = load i32, i32* %9, align 4
  %47 = mul nsw i32 %46, 10
  store i32 %47, i32* %9, align 4
  br label %48

48:                                               ; preds = %45
  %49 = load i32, i32* %7, align 4
  %50 = add nsw i32 %49, 1
  store i32 %50, i32* %7, align 4
  br label %39

51:                                               ; preds = %39
  %52 = load i32, i32* %3, align 4
  %53 = load i32, i32* %8, align 4
  %54 = mul nsw i32 %53, 10
  %55 = srem i32 %52, %54
  %56 = load i32, i32* %8, align 4
  %57 = sdiv i32 %55, %56
  %58 = load i32, i32* %9, align 4
  %59 = mul nsw i32 %57, %58
  %60 = load i32, i32* %6, align 4
  %61 = add nsw i32 %60, %59
  store i32 %61, i32* %6, align 4
  br label %62

62:                                               ; preds = %51
  %63 = load i32, i32* %5, align 4
  %64 = add nsw i32 %63, 1
  store i32 %64, i32* %5, align 4
  br label %22

65:                                               ; preds = %22
  %66 = load i32, i32* %6, align 4
  store i32 %66, i32* %2, align 4
  br label %67

67:                                               ; preds = %65, %12
  %68 = load i32, i32* %2, align 4
  ret i32 %68
}

declare dso_local i32 @printf(i8*, ...) #1

; Function Attrs: nounwind
declare dso_local double @log10(double) #2


!llvm.module.flags = !{!0}
!llvm.ident = !{!1}

!0 = !{i32 1, !"wchar_size", i32 4}
!1 = !{!"clang version 10.0.0-4ubuntu1 "}
